; ModuleID = 'source-C-CXX/24/601.c'
source_filename = "source-C-CXX/24/601.c"
target datalayout = "e-m:e-p270:32:32-p271:32:32-p272:64:64-i64:64-f80:128-n8:16:32:64-S128"
target triple = "x86_64-pc-linux-gnu"

@.str = private unnamed_addr constant [3 x i8] c"%d\00", align 1

; Function Attrs: nofree nounwind sspstrong uwtable
define dso_local i32 @main() local_unnamed_addr #0 {
  %1 = alloca i32, align 4
  %2 = alloca [100 x i32], align 16
  %3 = bitcast i32* %1 to i8*
  call void @llvm.lifetime.start.p0i8(i64 4, i8* nonnull %3) #4
  %4 = call i32 (i8*, ...) @__isoc99_scanf(i8* getelementptr inbounds ([3 x i8], [3 x i8]* @.str, i64 0, i64 0), i32* nonnull %1)
  %5 = bitcast [100 x i32]* %2 to i8*
  call void @llvm.lifetime.start.p0i8(i64 400, i8* nonnull %5) #4
  call void @llvm.memset.p0i8.i64(i8* noundef nonnull align 16 dereferenceable(400) %5, i8 0, i64 400, i1 false)
  %6 = getelementptr inbounds [100 x i32], [100 x i32]* %2, i64 0, i64 0
  store i32 1, i32* %6, align 16
  %7 = load i32, i32* %1, align 4, !tbaa !5
  %8 = icmp sgt i32 %7, 0
  br i1 %8, label %9, label %37

9:                                                ; preds = %0, %34
  %10 = phi i32 [ %35, %34 ], [ 0, %0 ]
  %11 = phi i32 [ %31, %34 ], [ 0, %0 ]
  br label %12

12:                                               ; preds = %12, %9
  %13 = phi i64 [ 0, %9 ], [ %32, %12 ]
  %14 = phi i32 [ %11, %9 ], [ %31, %12 ]
  %15 = getelementptr inbounds [100 x i32], [100 x i32]* %2, i64 0, i64 %13
  %16 = load i32, i32* %15, align 8, !tbaa !5
  %17 = shl nsw i32 %16, 1
  %18 = add nsw i32 %17, %14
  %19 = icmp sgt i32 %18, 9
  %20 = add nsw i32 %18, -10
  %21 = select i1 %19, i32 %20, i32 %18
  %22 = zext i1 %19 to i32
  store i32 %21, i32* %15, align 8, !tbaa !5
  %23 = or i64 %13, 1
  %24 = getelementptr inbounds [100 x i32], [100 x i32]* %2, i64 0, i64 %23
  %25 = load i32, i32* %24, align 4, !tbaa !5
  %26 = shl nsw i32 %25, 1
  %27 = or i32 %26, %22
  %28 = icmp sgt i32 %27, 9
  %29 = add nsw i32 %27, -10
  %30 = select i1 %28, i32 %29, i32 %27
  %31 = zext i1 %28 to i32
  store i32 %30, i32* %24, align 4, !tbaa !5
  %32 = add nuw nsw i64 %13, 2
  %33 = icmp eq i64 %32, 100
  br i1 %33, label %34, label %12, !llvm.loop !9

34:                                               ; preds = %12
  %35 = add nuw nsw i32 %10, 1
  %36 = icmp eq i32 %35, %7
  br i1 %36, label %37, label %9, !llvm.loop !11

37:                                               ; preds = %34, %0
  br label %38

38:                                               ; preds = %37, %38
  %39 = phi i64 [ %43, %38 ], [ 99, %37 ]
  %40 = getelementptr inbounds [100 x i32], [100 x i32]* %2, i64 0, i64 %39
  %41 = load i32, i32* %40, align 4, !tbaa !5
  %42 = icmp eq i32 %41, 0
  %43 = add i64 %39, -1
  br i1 %42, label %38, label %44, !llvm.loop !12

44:                                               ; preds = %38
  %45 = trunc i64 %39 to i32
  %46 = icmp sgt i32 %45, -1
  br i1 %46, label %47, label %56

47:                                               ; preds = %44
  %48 = and i64 %39, 4294967295
  br label %49

49:                                               ; preds = %47, %49
  %50 = phi i64 [ %48, %47 ], [ %55, %49 ]
  %51 = getelementptr inbounds [100 x i32], [100 x i32]* %2, i64 0, i64 %50
  %52 = load i32, i32* %51, align 4, !tbaa !5
  %53 = call i32 (i8*, ...) @printf(i8* nonnull dereferenceable(1) getelementptr inbounds ([3 x i8], [3 x i8]* @.str, i64 0, i64 0), i32 %52)
  %54 = icmp sgt i64 %50, 0
  %55 = add nsw i64 %50, -1
  br i1 %54, label %49, label %56, !llvm.loop !13

56:                                               ; preds = %49, %44
  call void @llvm.lifetime.end.p0i8(i64 400, i8* nonnull %5) #4
  call void @llvm.lifetime.end.p0i8(i64 4, i8* nonnull %3) #4
  ret i32 0
}

; Function Attrs: argmemonly mustprogress nofree nosync nounwind willreturn
declare void @llvm.lifetime.start.p0i8(i64 immarg, i8* nocapture) #1

; Function Attrs: nofree nounwind
declare noundef i32 @__isoc99_scanf(i8* nocapture noundef readonly, ...) local_unnamed_addr #2

; Function Attrs: argmemonly mustprogress nofree nounwind willreturn writeonly
declare void @llvm.memset.p0i8.i64(i8* nocapture writeonly, i8, i64, i1 immarg) #3

; Function Attrs: nofree nounwind
declare noundef i32 @printf(i8* nocapture noundef readonly, ...) local_unnamed_addr #2

; Function Attrs: argmemonly mustprogress nofree nosync nounwind willreturn
declare void @llvm.lifetime.end.p0i8(i64 immarg, i8* nocapture) #1


!llvm.module.flags = !{!0, !1, !2, !3}
!llvm.ident = !{!4}

!0 = !{i32 1, !"wchar_size", i32 4}
!1 = !{i32 7, !"PIC Level", i32 2}
!2 = !{i32 7, !"PIE Level", i32 2}
!3 = !{i32 7, !"uwtable", i32 1}
!4 = !{!"clang version 13.0.0"}
!5 = !{!6, !6, i64 0}
!6 = !{!"int", !7, i64 0}
!7 = !{!"omnipotent char", !8, i64 0}
!8 = !{!"Simple C/C++ TBAA"}
!9 = distinct !{!9, !10}
!10 = !{!"llvm.loop.mustprogress"}
!11 = distinct !{!11, !10}
!12 = distinct !{!12, !10}
!13 = distinct !{!13, !10}
